; Function Attrs: nounwind uwtable
define dso_local void @BootStrapMultiXact() local_unnamed_addr #0 {
  %MultiXactOffsetCtlData.val = load ptr, ptr @MultiXactOffsetCtlData, align 8
  %1 = getelementptr i8, ptr %MultiXactOffsetCtlData.val, i64 56
  %MultiXactOffsetCtlData.val.val = load ptr, ptr %1, align 8
  %2 = tail call zeroext i1 @LWLockAcquire(ptr noundef %MultiXactOffsetCtlData.val.val, i32 noundef 0) #13
  %3 = tail call i32 @SimpleLruZeroPage(ptr noundef nonnull @MultiXactOffsetCtlData, i64 noundef 0) #13
  tail call void @SimpleLruWritePage(ptr noundef nonnull @MultiXactOffsetCtlData, i32 noundef %3) #13
  tail call void @LWLockRelease(ptr noundef %MultiXactOffsetCtlData.val.val) #13
  %MultiXactMemberCtlData.val = load ptr, ptr @MultiXactMemberCtlData, align 8
  %4 = getelementptr i8, ptr %MultiXactMemberCtlData.val, i64 56
  %MultiXactMemberCtlData.val.val = load ptr, ptr %4, align 8
  %5 = tail call zeroext i1 @LWLockAcquire(ptr noundef %MultiXactMemberCtlData.val.val, i32 noundef 0) #13
  %6 = tail call i32 @SimpleLruZeroPage(ptr noundef nonnull @MultiXactMemberCtlData, i64 noundef 0) #13
  tail call void @SimpleLruWritePage(ptr noundef nonnull @MultiXactMemberCtlData, i32 noundef %6) #13
  tail call void @LWLockRelease(ptr noundef %MultiXactMemberCtlData.val.val) #13
  ret void
}